; Function Attrs: nounwind uwtable
define ptr @Gia_ManUnrollAndCofactor(ptr noundef captures(none) initializes((396, 400)) %0, i32 noundef %1, i32 noundef %2, i32 noundef %3) local_unnamed_addr #0 {
  %5 = tail call ptr @Gia_ManUnrollInit(ptr noundef %0, i32 noundef %1)
  %6 = tail call ptr @Gia_ManCleanup(ptr noundef %5) #17
  %7 = tail call ptr @Gia_ManDetectSeqSignalsWithFanout(ptr noundef %0, i32 noundef %2, i32 noundef %3)
  %8 = tail call ptr @Gia_ManTransferFrames(ptr noundef %0, ptr noundef %5, i32 noundef %1, ptr poison, ptr noundef %7)
  %9 = getelementptr inbounds nuw i8, ptr %7, i64 8
  %10 = load ptr, ptr %9, align 8, !tbaa !29
  %.not.i = icmp eq ptr %10, null
  br i1 %.not.i, label %Vec_IntFree.exit, label %11

11:                                               ; preds = %4
  tail call void @free(ptr noundef nonnull %10) #17
  br label %Vec_IntFree.exit

Vec_IntFree.exit:                                 ; preds = %4, %11
  tail call void @free(ptr noundef nonnull %7) #17
  tail call void @Gia_ManStop(ptr noundef %5) #17
  %12 = getelementptr inbounds nuw i8, ptr %0, i64 392
  %13 = getelementptr inbounds nuw i8, ptr %0, i64 400
  %14 = load ptr, ptr %13, align 8, !tbaa !29
  %.not.i19 = icmp eq ptr %14, null
  br i1 %.not.i19, label %Vec_IntErase.exit, label %15

15:                                               ; preds = %Vec_IntFree.exit
  tail call void @free(ptr noundef nonnull %14) #17
  store ptr null, ptr %13, align 8, !tbaa !29
  br label %Vec_IntErase.exit

Vec_IntErase.exit:                                ; preds = %Vec_IntFree.exit, %15
  %16 = getelementptr inbounds nuw i8, ptr %0, i64 396
  store i32 0, ptr %16, align 4, !tbaa !28
  store i32 0, ptr %12, align 8, !tbaa !33
  %17 = tail call ptr @Gia_ManDupCofAllInt(ptr noundef %6, ptr noundef %8, i32 noundef %3) #17
  %18 = getelementptr inbounds nuw i8, ptr %8, i64 8
  %19 = load ptr, ptr %18, align 8, !tbaa !29
  %.not.i20 = icmp eq ptr %19, null
  br i1 %.not.i20, label %Vec_IntFree.exit21, label %20

20:                                               ; preds = %Vec_IntErase.exit
  tail call void @free(ptr noundef nonnull %19) #17
  br label %Vec_IntFree.exit21

Vec_IntFree.exit21:                               ; preds = %Vec_IntErase.exit, %20
  tail call void @free(ptr noundef nonnull %8) #17
  tail call void @Gia_ManStop(ptr noundef %6) #17
  ret ptr %17
}